target datalayout = "e-m:e-p270:32:32-p271:32:32-p272:64:64-i64:64-i128:128-f80:128-n8:16:32:64-S128"
target triple = "x86_64-pc-linux-gnu"

%struct.LogicalRepStreamAbortData = type { i32, i32, i64, i64 }

; Function Attrs: nounwind uwtable
define dso_local void @logicalrep_read_stream_abort(ptr noundef %0, ptr noundef %1, i1 noundef zeroext %2) #0 {
  %4 = alloca ptr, align 8
  %5 = alloca ptr, align 8
  %6 = alloca i8, align 1
  store ptr %0, ptr %4, align 8
  store ptr %1, ptr %5, align 8
  %7 = zext i1 %2 to i8
  store i8 %7, ptr %6, align 1
  %8 = load ptr, ptr %4, align 8
  %9 = call i32 @pq_getmsgint(ptr noundef %8, i32 noundef 4)
  %10 = load ptr, ptr %5, align 8
  %11 = getelementptr inbounds nuw %struct.LogicalRepStreamAbortData, ptr %10, i32 0, i32 0
  store i32 %9, ptr %11, align 8
  %12 = load ptr, ptr %4, align 8
  %13 = call i32 @pq_getmsgint(ptr noundef %12, i32 noundef 4)
  %14 = load ptr, ptr %5, align 8
  %15 = getelementptr inbounds nuw %struct.LogicalRepStreamAbortData, ptr %14, i32 0, i32 1
  store i32 %13, ptr %15, align 4
  %16 = load i8, ptr %6, align 1, !range !4, !noundef !5
  %17 = trunc i8 %16 to i1
  br i1 %17, label %18, label %27

18:                                               ; preds = %3
  %19 = load ptr, ptr %4, align 8
  %20 = call i64 @pq_getmsgint64(ptr noundef %19)
  %21 = load ptr, ptr %5, align 8
  %22 = getelementptr inbounds nuw %struct.LogicalRepStreamAbortData, ptr %21, i32 0, i32 2
  store i64 %20, ptr %22, align 8
  %23 = load ptr, ptr %4, align 8
  %24 = call i64 @pq_getmsgint64(ptr noundef %23)
  %25 = load ptr, ptr %5, align 8
  %26 = getelementptr inbounds nuw %struct.LogicalRepStreamAbortData, ptr %25, i32 0, i32 3
  store i64 %24, ptr %26, align 8
  br label %32

27:                                               ; preds = %3
  %28 = load ptr, ptr %5, align 8
  %29 = getelementptr inbounds nuw %struct.LogicalRepStreamAbortData, ptr %28, i32 0, i32 2
  store i64 0, ptr %29, align 8
  %30 = load ptr, ptr %5, align 8
  %31 = getelementptr inbounds nuw %struct.LogicalRepStreamAbortData, ptr %30, i32 0, i32 3
  store i64 0, ptr %31, align 8
  br label %32

32:                                               ; preds = %27, %18
  ret void
}