; Function Attrs: nounwind uwtable
define dso_local void @logicalrep_read_stream_abort(ptr noundef %0, ptr noundef writeonly captures(none) initializes((0, 24)) %1, i1 noundef zeroext %2) local_unnamed_addr #0 {
  %4 = tail call i32 @pq_getmsgint(ptr noundef %0, i32 noundef 4) #8
  store i32 %4, ptr %1, align 8
  %5 = tail call i32 @pq_getmsgint(ptr noundef %0, i32 noundef 4) #8
  %6 = getelementptr inbounds nuw i8, ptr %1, i64 4
  store i32 %5, ptr %6, align 4
  br i1 %2, label %7, label %11

7:                                                ; preds = %3
  %8 = tail call i64 @pq_getmsgint64(ptr noundef %0) #8
  %9 = getelementptr inbounds nuw i8, ptr %1, i64 8
  store i64 %8, ptr %9, align 8
  %10 = tail call i64 @pq_getmsgint64(ptr noundef %0) #8
  br label %13

11:                                               ; preds = %3
  %12 = getelementptr inbounds nuw i8, ptr %1, i64 8
  store i64 0, ptr %12, align 8
  br label %13

13:                                               ; preds = %11, %7
  %.sink = phi i64 [ %10, %7 ], [ 0, %11 ]
  %14 = getelementptr inbounds nuw i8, ptr %1, i64 16
  store i64 %.sink, ptr %14, align 8
  ret void
}